target datalayout = "e-m:e-p270:32:32-p271:32:32-p272:64:64-i64:64-i128:128-f80:128-n8:16:32:64-S128"
target triple = "x86_64-pc-linux-gnu"

@.str.2 = private unnamed_addr constant [101 x i8] c"generated/home/dtcxzyw/WorkSpace/Projects/compilers/llvm-opt-benchmark/bench/hdf5/hdf5/src/H5VLint.c\00", align 1
@H5E_VOL_g = external global i64, align 8
@H5E_CANTREGISTER_g = external global i64, align 8
@H5E_CANTCREATE_g = external global i64, align 8
@.str.40 = private unnamed_addr constant [24 x i8] c"can't create VOL object\00", align 1
@__func__.H5VL_register_using_existing_id = private unnamed_addr constant [32 x i8] c"H5VL_register_using_existing_id\00", align 1
@.str.42 = private unnamed_addr constant [40 x i8] c"can't register object under existing ID\00", align 1

; Function Attrs: nounwind uwtable
define i32 @H5VL_register_using_existing_id(i32 noundef %0, ptr noundef %1, ptr noundef %2, i1 noundef zeroext %3, i64 noundef %4) #0 {
  %6 = alloca i32, align 4
  %7 = alloca ptr, align 8
  %8 = alloca ptr, align 8
  %9 = alloca i8, align 1
  %10 = alloca i64, align 8
  %11 = alloca ptr, align 8
  %12 = alloca i32, align 4
  %13 = alloca i8, align 1
  store i32 %0, ptr %6, align 4
  store ptr %1, ptr %7, align 8
  store ptr %2, ptr %8, align 8
  %14 = zext i1 %3 to i8
  store i8 %14, ptr %9, align 1
  store i64 %4, ptr %10, align 8
  store ptr null, ptr %11, align 8
  store i32 0, ptr %12, align 4
  store i8 0, ptr %13, align 1
  %15 = load i32, ptr %6, align 4
  %16 = load ptr, ptr %7, align 8
  %17 = load ptr, ptr %8, align 8
  %18 = call ptr @H5VL__new_vol_obj(i32 noundef %15, ptr noundef %16, ptr noundef %17, i1 noundef zeroext true)
  store ptr %18, ptr %11, align 8
  %19 = icmp eq ptr null, %18
  br i1 %19, label %20, label %35

20:                                               ; preds = %5
  br label %21

21:                                               ; preds = %20
  br label %22

22:                                               ; preds = %21
  br label %23

23:                                               ; preds = %22
  %24 = load i64, ptr @H5E_VOL_g, align 8
  %25 = load i64, ptr @H5E_CANTCREATE_g, align 8
  %26 = call i32 (ptr, ptr, i32, i64, i64, ptr, ...) @H5E_printf_stack(ptr noundef @.str.2, ptr noundef @__func__.H5VL_register_using_existing_id, i32 noundef 736, i64 noundef %24, i64 noundef %25, ptr noundef @.str.40)
  br label %27

27:                                               ; preds = %23
  store i8 1, ptr %13, align 1
  %28 = load i8, ptr %13, align 1
  %29 = trunc i8 %28 to i1
  %30 = zext i1 %29 to i8
  store i8 %30, ptr %13, align 1
  br label %31

31:                                               ; preds = %27
  br label %32

32:                                               ; preds = %31
  store i32 -1, ptr %12, align 4
  br label %59

33:                                               ; No predecessors!
  br label %34

34:                                               ; preds = %33
  br label %35

35:                                               ; preds = %34, %5
  %36 = load i32, ptr %6, align 4
  %37 = load ptr, ptr %11, align 8
  %38 = load i8, ptr %9, align 1
  %39 = trunc i8 %38 to i1
  %40 = load i64, ptr %10, align 8
  %41 = call i32 @H5I_register_using_existing_id(i32 noundef %36, ptr noundef %37, i1 noundef zeroext %39, i64 noundef %40)
  %42 = icmp slt i32 %41, 0
  br i1 %42, label %43, label %58

43:                                               ; preds = %35
  br label %44

44:                                               ; preds = %43
  br label %45

45:                                               ; preds = %44
  br label %46

46:                                               ; preds = %45
  %47 = load i64, ptr @H5E_VOL_g, align 8
  %48 = load i64, ptr @H5E_CANTREGISTER_g, align 8
  %49 = call i32 (ptr, ptr, i32, i64, i64, ptr, ...) @H5E_printf_stack(ptr noundef @.str.2, ptr noundef @__func__.H5VL_register_using_existing_id, i32 noundef 740, i64 noundef %47, i64 noundef %48, ptr noundef @.str.42)
  br label %50

50:                                               ; preds = %46
  store i8 1, ptr %13, align 1
  %51 = load i8, ptr %13, align 1
  %52 = trunc i8 %51 to i1
  %53 = zext i1 %52 to i8
  store i8 %53, ptr %13, align 1
  br label %54

54:                                               ; preds = %50
  br label %55

55:                                               ; preds = %54
  store i32 -1, ptr %12, align 4
  br label %59

56:                                               ; No predecessors!
  br label %57

57:                                               ; preds = %56
  br label %58

58:                                               ; preds = %57, %35
  br label %59

59:                                               ; preds = %58, %55, %32
  %60 = load i32, ptr %12, align 4
  ret i32 %60
}