; Function Attrs: nounwind uwtable
define range(i32 -1, 1) i32 @H5VL_register_using_existing_id(i32 noundef %0, ptr noundef %1, ptr noundef %2, i1 noundef zeroext %3, i64 noundef %4) local_unnamed_addr #0 {
  %6 = tail call fastcc ptr @H5VL__new_vol_obj(i32 noundef %0, ptr noundef %1, ptr noundef %2, i1 noundef zeroext true)
  %7 = icmp eq ptr %6, null
  br i1 %7, label %8, label %12

8:                                                ; preds = %5
  %9 = load i64, ptr @H5E_VOL_g, align 8
  %10 = load i64, ptr @H5E_CANTCREATE_g, align 8
  %11 = tail call i32 (ptr, ptr, i32, i64, i64, ptr, ...) @H5E_printf_stack(ptr noundef nonnull @.str.2, ptr noundef nonnull @__func__.H5VL_register_using_existing_id, i32 noundef 736, i64 noundef %9, i64 noundef %10, ptr noundef nonnull @.str.40) #10
  br label %19

12:                                               ; preds = %5
  %13 = tail call i32 @H5I_register_using_existing_id(i32 noundef %0, ptr noundef nonnull %6, i1 noundef zeroext %3, i64 noundef %4) #10
  %14 = icmp slt i32 %13, 0
  br i1 %14, label %15, label %19

15:                                               ; preds = %12
  %16 = load i64, ptr @H5E_VOL_g, align 8
  %17 = load i64, ptr @H5E_CANTREGISTER_g, align 8
  %18 = tail call i32 (ptr, ptr, i32, i64, i64, ptr, ...) @H5E_printf_stack(ptr noundef nonnull @.str.2, ptr noundef nonnull @__func__.H5VL_register_using_existing_id, i32 noundef 740, i64 noundef %16, i64 noundef %17, ptr noundef nonnull @.str.42) #10
  br label %19

19:                                               ; preds = %12, %15, %8
  %.0 = phi i32 [ -1, %8 ], [ -1, %15 ], [ 0, %12 ]
  ret i32 %.0
}